; Function Attrs: nounwind uwtable
define dso_local noundef ptr @gistbulkdelete(ptr noundef readonly captures(none) %0, ptr noundef captures(address_is_null, ret: address, provenance) %1, ptr noundef captures(address_is_null) %2, ptr noundef %3) local_unnamed_addr #0 {
  %5 = icmp eq ptr %1, null
  br i1 %5, label %6, label %8

6:                                                ; preds = %4
  %7 = tail call ptr @palloc0(i64 noundef 40) #4
  br label %8

8:                                                ; preds = %6, %4
  %.0 = phi ptr [ %7, %6 ], [ %1, %4 ]
  tail call fastcc void @gistvacuumscan(ptr noundef %0, ptr noundef %.0, ptr noundef %2, ptr noundef %3)
  ret ptr %.0
}